; ModuleID = 'source-C-CXX/0/2085.cpp'
source_filename = "source-C-CXX/0/2085.cpp"
target datalayout = "e-m:e-p270:32:32-p271:32:32-p272:64:64-i64:64-f80:128-n8:16:32:64-S128"
target triple = "x86_64-pc-linux-gnu"

%"class.std::ios_base::Init" = type { i8 }
%"class.std::basic_istream" = type { i32 (...)**, i64, %"class.std::basic_ios" }
%"class.std::basic_ios" = type { %"class.std::ios_base", %"class.std::basic_ostream"*, i8, i8, %"class.std::basic_streambuf"*, %"class.std::ctype"*, %"class.std::num_put"*, %"class.std::num_get"* }
%"class.std::ios_base" = type { i32 (...)**, i64, i64, i32, i32, i32, %"struct.std::ios_base::_Callback_list"*, %"struct.std::ios_base::_Words", [8 x %"struct.std::ios_base::_Words"], i32, %"struct.std::ios_base::_Words"*, %"class.std::locale" }
%"struct.std::ios_base::_Callback_list" = type { %"struct.std::ios_base::_Callback_list"*, void (i32, %"class.std::ios_base"*, i32)*, i32, i32 }
%"struct.std::ios_base::_Words" = type { i8*, i64 }
%"class.std::locale" = type { %"class.std::locale::_Impl"* }
%"class.std::locale::_Impl" = type { i32, %"class.std::locale::facet"**, i64, %"class.std::locale::facet"**, i8** }
%"class.std::locale::facet" = type <{ i32 (...)**, i32, [4 x i8] }>
%"class.std::basic_ostream" = type { i32 (...)**, %"class.std::basic_ios" }
%"class.std::basic_streambuf" = type { i32 (...)**, i8*, i8*, i8*, i8*, i8*, i8*, %"class.std::locale" }
%"class.std::ctype" = type <{ %"class.std::locale::facet.base", [4 x i8], %struct.__locale_struct*, i8, [7 x i8], i32*, i32*, i16*, i8, [256 x i8], [256 x i8], i8, [6 x i8] }>
%"class.std::locale::facet.base" = type <{ i32 (...)**, i32 }>
%struct.__locale_struct = type { [13 x %struct.__locale_data*], i16*, i32*, i32*, [13 x i8*] }
%struct.__locale_data = type opaque
%"class.std::num_put" = type { %"class.std::locale::facet.base", [4 x i8] }
%"class.std::num_get" = type { %"class.std::locale::facet.base", [4 x i8] }

@_ZStL8__ioinit = internal global %"class.std::ios_base::Init" zeroinitializer, align 1
@__dso_handle = external hidden global i8
@_ZSt3cin = external global %"class.std::basic_istream", align 8
@_ZSt4cout = external global %"class.std::basic_ostream", align 8
@llvm.global_ctors = appending global [1 x { i32, void ()*, i8* }] [{ i32, void ()*, i8* } { i32 65535, void ()* @_GLOBAL__sub_I_2085.cpp, i8* null }]

declare void @_ZNSt8ios_base4InitC1Ev(%"class.std::ios_base::Init"* nonnull align 1 dereferenceable(1)) unnamed_addr #0

; Function Attrs: nounwind
declare void @_ZNSt8ios_base4InitD1Ev(%"class.std::ios_base::Init"* nonnull align 1 dereferenceable(1)) unnamed_addr #1

; Function Attrs: nofree nounwind
declare i32 @__cxa_atexit(void (i8*)*, i8*, i8*) local_unnamed_addr #2

; Function Attrs: mustprogress nofree norecurse nosync nounwind readnone sspstrong uwtable willreturn
define dso_local i32 @_Z1gi(i32 %0) local_unnamed_addr #3 {
  br label %2

2:                                                ; preds = %2, %1
  %3 = phi i32 [ 0, %1 ], [ %6, %2 ]
  %4 = mul nsw i32 %3, %3
  %5 = icmp sgt i32 %4, %0
  %6 = add nuw nsw i32 %3, 1
  br i1 %5, label %7, label %2, !llvm.loop !5

7:                                                ; preds = %2
  %8 = add nsw i32 %3, -1
  ret i32 %8
}

; Function Attrs: argmemonly mustprogress nofree nosync nounwind willreturn
declare void @llvm.lifetime.start.p0i8(i64 immarg, i8* nocapture) #4

; Function Attrs: argmemonly mustprogress nofree nosync nounwind willreturn
declare void @llvm.lifetime.end.p0i8(i64 immarg, i8* nocapture) #4

; Function Attrs: mustprogress nofree nosync nounwind readnone sspstrong uwtable willreturn
define dso_local i32 @_Z1fii(i32 %0, i32 %1) local_unnamed_addr #5 {
  %3 = alloca [100 x i32], align 16
  %4 = bitcast [100 x i32]* %3 to i8*
  call void @llvm.lifetime.start.p0i8(i64 400, i8* nonnull %4) #9
  br label %5

5:                                                ; preds = %5, %2
  %6 = phi i32 [ 0, %2 ], [ %9, %5 ]
  %7 = mul nsw i32 %6, %6
  %8 = icmp sgt i32 %7, %0
  %9 = add nuw nsw i32 %6, 1
  br i1 %8, label %10, label %5, !llvm.loop !5

10:                                               ; preds = %5
  %11 = icmp ne i32 %0, 2
  %12 = icmp sgt i32 %6, %1
  %13 = select i1 %11, i1 %12, i1 false
  br i1 %13, label %14, label %64

14:                                               ; preds = %10
  %15 = sub i32 %6, %1
  %16 = add i32 %1, 1
  %17 = and i32 %15, 1
  %18 = icmp eq i32 %6, %16
  br i1 %18, label %21, label %19

19:                                               ; preds = %14
  %20 = and i32 %15, -2
  br label %38

21:                                               ; preds = %70, %14
  %22 = phi i32 [ undef, %14 ], [ %71, %70 ]
  %23 = phi i32 [ %1, %14 ], [ %72, %70 ]
  %24 = phi i32 [ 0, %14 ], [ %71, %70 ]
  %25 = icmp eq i32 %17, 0
  br i1 %25, label %33, label %26

26:                                               ; preds = %21
  %27 = srem i32 %0, %23
  %28 = icmp eq i32 %27, 0
  br i1 %28, label %29, label %33

29:                                               ; preds = %26
  %30 = sext i32 %24 to i64
  %31 = getelementptr inbounds [100 x i32], [100 x i32]* %3, i64 0, i64 %30
  store i32 %23, i32* %31, align 4, !tbaa !7
  %32 = add nsw i32 %24, 1
  br label %33

33:                                               ; preds = %29, %26, %21
  %34 = phi i32 [ %22, %21 ], [ %32, %29 ], [ %24, %26 ]
  %35 = icmp sgt i32 %34, 0
  br i1 %35, label %36, label %64

36:                                               ; preds = %33
  %37 = zext i32 %34 to i64
  br label %53

38:                                               ; preds = %70, %19
  %39 = phi i32 [ %1, %19 ], [ %72, %70 ]
  %40 = phi i32 [ 0, %19 ], [ %71, %70 ]
  %41 = phi i32 [ %20, %19 ], [ %73, %70 ]
  %42 = srem i32 %0, %39
  %43 = icmp eq i32 %42, 0
  br i1 %43, label %44, label %48

44:                                               ; preds = %38
  %45 = sext i32 %40 to i64
  %46 = getelementptr inbounds [100 x i32], [100 x i32]* %3, i64 0, i64 %45
  store i32 %39, i32* %46, align 4, !tbaa !7
  %47 = add nsw i32 %40, 1
  br label %48

48:                                               ; preds = %38, %44
  %49 = phi i32 [ %47, %44 ], [ %40, %38 ]
  %50 = add nsw i32 %39, 1
  %51 = srem i32 %0, %50
  %52 = icmp eq i32 %51, 0
  br i1 %52, label %66, label %70

53:                                               ; preds = %36, %53
  %54 = phi i64 [ 0, %36 ], [ %62, %53 ]
  %55 = phi i32 [ 0, %36 ], [ %61, %53 ]
  %56 = getelementptr inbounds [100 x i32], [100 x i32]* %3, i64 0, i64 %54
  %57 = load i32, i32* %56, align 4, !tbaa !7
  %58 = sdiv i32 %0, %57
  %59 = tail call i32 @_Z1fii(i32 %58, i32 %57)
  %60 = add i32 %55, 1
  %61 = add i32 %60, %59
  %62 = add nuw nsw i64 %54, 1
  %63 = icmp eq i64 %62, %37
  br i1 %63, label %64, label %53, !llvm.loop !11

64:                                               ; preds = %53, %33, %10
  %65 = phi i32 [ 0, %10 ], [ 0, %33 ], [ %61, %53 ]
  call void @llvm.lifetime.end.p0i8(i64 400, i8* nonnull %4) #9
  ret i32 %65

66:                                               ; preds = %48
  %67 = sext i32 %49 to i64
  %68 = getelementptr inbounds [100 x i32], [100 x i32]* %3, i64 0, i64 %67
  store i32 %50, i32* %68, align 4, !tbaa !7
  %69 = add nsw i32 %49, 1
  br label %70

70:                                               ; preds = %66, %48
  %71 = phi i32 [ %69, %66 ], [ %49, %48 ]
  %72 = add nsw i32 %39, 2
  %73 = add i32 %41, -2
  %74 = icmp eq i32 %73, 0
  br i1 %74, label %21, label %38, !llvm.loop !12
}

; Function Attrs: mustprogress norecurse sspstrong uwtable
define dso_local i32 @main() local_unnamed_addr #6 {
  %1 = alloca i32, align 4
  %2 = alloca i32, align 4
  %3 = bitcast i32* %1 to i8*
  call void @llvm.lifetime.start.p0i8(i64 4, i8* nonnull %3) #9
  %4 = bitcast i32* %2 to i8*
  call void @llvm.lifetime.start.p0i8(i64 4, i8* nonnull %4) #9
  %5 = call nonnull align 8 dereferenceable(16) %"class.std::basic_istream"* @_ZNSirsERi(%"class.std::basic_istream"* nonnull align 8 dereferenceable(16) @_ZSt3cin, i32* nonnull align 4 dereferenceable(4) %1)
  %6 = load i32, i32* %1, align 4, !tbaa !7
  %7 = icmp sgt i32 %6, 0
  br i1 %7, label %9, label %8

8:                                                ; preds = %41, %0
  call void @llvm.lifetime.end.p0i8(i64 4, i8* nonnull %4) #9
  call void @llvm.lifetime.end.p0i8(i64 4, i8* nonnull %3) #9
  ret i32 0

9:                                                ; preds = %0, %41
  %10 = phi i32 [ %45, %41 ], [ 0, %0 ]
  %11 = call nonnull align 8 dereferenceable(16) %"class.std::basic_istream"* @_ZNSirsERi(%"class.std::basic_istream"* nonnull align 8 dereferenceable(16) @_ZSt3cin, i32* nonnull align 4 dereferenceable(4) %2)
  %12 = load i32, i32* %2, align 4, !tbaa !7
  %13 = call i32 @_Z1fii(i32 %12, i32 2)
  %14 = add nsw i32 %13, 1
  %15 = call nonnull align 8 dereferenceable(8) %"class.std::basic_ostream"* @_ZNSolsEi(%"class.std::basic_ostream"* nonnull align 8 dereferenceable(8) @_ZSt4cout, i32 %14)
  %16 = bitcast %"class.std::basic_ostream"* %15 to i8**
  %17 = load i8*, i8** %16, align 8, !tbaa !13
  %18 = getelementptr i8, i8* %17, i64 -24
  %19 = bitcast i8* %18 to i64*
  %20 = load i64, i64* %19, align 8
  %21 = bitcast %"class.std::basic_ostream"* %15 to i8*
  %22 = add nsw i64 %20, 240
  %23 = getelementptr inbounds i8, i8* %21, i64 %22
  %24 = bitcast i8* %23 to %"class.std::ctype"**
  %25 = load %"class.std::ctype"*, %"class.std::ctype"** %24, align 8, !tbaa !15
  %26 = icmp eq %"class.std::ctype"* %25, null
  br i1 %26, label %27, label %28

27:                                               ; preds = %9
  call void @_ZSt16__throw_bad_castv() #10
  unreachable

28:                                               ; preds = %9
  %29 = getelementptr inbounds %"class.std::ctype", %"class.std::ctype"* %25, i64 0, i32 8
  %30 = load i8, i8* %29, align 8, !tbaa !19
  %31 = icmp eq i8 %30, 0
  br i1 %31, label %35, label %32

32:                                               ; preds = %28
  %33 = getelementptr inbounds %"class.std::ctype", %"class.std::ctype"* %25, i64 0, i32 9, i64 10
  %34 = load i8, i8* %33, align 1, !tbaa !21
  br label %41

35:                                               ; preds = %28
  call void @_ZNKSt5ctypeIcE13_M_widen_initEv(%"class.std::ctype"* nonnull align 8 dereferenceable(570) %25)
  %36 = bitcast %"class.std::ctype"* %25 to i8 (%"class.std::ctype"*, i8)***
  %37 = load i8 (%"class.std::ctype"*, i8)**, i8 (%"class.std::ctype"*, i8)*** %36, align 8, !tbaa !13
  %38 = getelementptr inbounds i8 (%"class.std::ctype"*, i8)*, i8 (%"class.std::ctype"*, i8)** %37, i64 6
  %39 = load i8 (%"class.std::ctype"*, i8)*, i8 (%"class.std::ctype"*, i8)** %38, align 8
  %40 = call signext i8 %39(%"class.std::ctype"* nonnull align 8 dereferenceable(570) %25, i8 signext 10)
  br label %41

41:                                               ; preds = %32, %35
  %42 = phi i8 [ %34, %32 ], [ %40, %35 ]
  %43 = call nonnull align 8 dereferenceable(8) %"class.std::basic_ostream"* @_ZNSo3putEc(%"class.std::basic_ostream"* nonnull align 8 dereferenceable(8) %15, i8 signext %42)
  %44 = call nonnull align 8 dereferenceable(8) %"class.std::basic_ostream"* @_ZNSo5flushEv(%"class.std::basic_ostream"* nonnull align 8 dereferenceable(8) %43)
  %45 = add nuw nsw i32 %10, 1
  %46 = load i32, i32* %1, align 4, !tbaa !7
  %47 = icmp slt i32 %45, %46
  br i1 %47, label %9, label %8, !llvm.loop !22
}

declare nonnull align 8 dereferenceable(16) %"class.std::basic_istream"* @_ZNSirsERi(%"class.std::basic_istream"* nonnull align 8 dereferenceable(16), i32* nonnull align 4 dereferenceable(4)) local_unnamed_addr #0

declare nonnull align 8 dereferenceable(8) %"class.std::basic_ostream"* @_ZNSolsEi(%"class.std::basic_ostream"* nonnull align 8 dereferenceable(8), i32) local_unnamed_addr #0

declare nonnull align 8 dereferenceable(8) %"class.std::basic_ostream"* @_ZNSo3putEc(%"class.std::basic_ostream"* nonnull align 8 dereferenceable(8), i8 signext) local_unnamed_addr #0

declare nonnull align 8 dereferenceable(8) %"class.std::basic_ostream"* @_ZNSo5flushEv(%"class.std::basic_ostream"* nonnull align 8 dereferenceable(8)) local_unnamed_addr #0

; Function Attrs: noreturn
declare void @_ZSt16__throw_bad_castv() local_unnamed_addr #7

declare void @_ZNKSt5ctypeIcE13_M_widen_initEv(%"class.std::ctype"* nonnull align 8 dereferenceable(570)) local_unnamed_addr #0

; Function Attrs: sspstrong uwtable
define internal void @_GLOBAL__sub_I_2085.cpp() #8 section ".text.startup" {
  tail call void @_ZNSt8ios_base4InitC1Ev(%"class.std::ios_base::Init"* nonnull align 1 dereferenceable(1) @_ZStL8__ioinit)
  %1 = tail call i32 @__cxa_atexit(void (i8*)* bitcast (void (%"class.std::ios_base::Init"*)* @_ZNSt8ios_base4InitD1Ev to void (i8*)*), i8* getelementptr inbounds (%"class.std::ios_base::Init", %"class.std::ios_base::Init"* @_ZStL8__ioinit, i64 0, i32 0), i8* nonnull @__dso_handle) #9
  ret void
}


!llvm.module.flags = !{!0, !1, !2, !3}
!llvm.ident = !{!4}

!0 = !{i32 1, !"wchar_size", i32 4}
!1 = !{i32 7, !"PIC Level", i32 2}
!2 = !{i32 7, !"PIE Level", i32 2}
!3 = !{i32 7, !"uwtable", i32 1}
!4 = !{!"clang version 13.0.0"}
!5 = distinct !{!5, !6}
!6 = !{!"llvm.loop.mustprogress"}
!7 = !{!8, !8, i64 0}
!8 = !{!"int", !9, i64 0}
!9 = !{!"omnipotent char", !10, i64 0}
!10 = !{!"Simple C++ TBAA"}
!11 = distinct !{!11, !6}
!12 = distinct !{!12, !6}
!13 = !{!14, !14, i64 0}
!14 = !{!"vtable pointer", !10, i64 0}
!15 = !{!16, !17, i64 240}
!16 = !{!"_ZTSSt9basic_iosIcSt11char_traitsIcEE", !17, i64 216, !9, i64 224, !18, i64 225, !17, i64 232, !17, i64 240, !17, i64 248, !17, i64 256}
!17 = !{!"any pointer", !9, i64 0}
!18 = !{!"bool", !9, i64 0}
!19 = !{!20, !9, i64 56}
!20 = !{!"_ZTSSt5ctypeIcE", !17, i64 16, !18, i64 24, !17, i64 32, !17, i64 40, !17, i64 48, !9, i64 56, !9, i64 57, !9, i64 313, !9, i64 569}
!21 = !{!9, !9, i64 0}
!22 = distinct !{!22, !6}
